; ModuleID = '62/519.c'
source_filename = "62/519.c"
target datalayout = "e-m:e-p270:32:32-p271:32:32-p272:64:64-i64:64-f80:128-n8:16:32:64-S128"
target triple = "x86_64-pc-linux-gnu"

@.str = private unnamed_addr constant [3 x i8] c"%c\00", align 1

; Function Attrs: noinline nounwind uwtable
define dso_local void @main() #0 {
  %1 = alloca i8, align 1
  %2 = alloca i8, align 1
  %3 = alloca i32, align 4
  store i8 32, i8* %1, align 1
  store i8 32, i8* %2, align 1
  store i32 1, i32* %3, align 4
  br label %4

4:                                                ; preds = %28, %0
  %5 = load i32, i32* %3, align 4
  %6 = icmp slt i32 %5, 100
  br i1 %6, label %7, label %31

7:                                                ; preds = %4
  %8 = load i8, i8* %2, align 1
  store i8 %8, i8* %1, align 1
  %9 = call i32 (i8*, ...) @__isoc99_scanf(i8* getelementptr inbounds ([3 x i8], [3 x i8]* @.str, i64 0, i64 0), i8* %2)
  %10 = load i8, i8* %2, align 1
  %11 = sext i8 %10 to i32
  %12 = icmp eq i32 %11, 32
  br i1 %12, label %13, label %18

13:                                               ; preds = %7
  %14 = load i8, i8* %1, align 1
  %15 = sext i8 %14 to i32
  %16 = icmp eq i32 %15, 32
  br i1 %16, label %17, label %18

17:                                               ; preds = %13
  br label %28

18:                                               ; preds = %13, %7
  %19 = load i8, i8* %2, align 1
  %20 = sext i8 %19 to i32
  %21 = call i32 (i8*, ...) @printf(i8* getelementptr inbounds ([3 x i8], [3 x i8]* @.str, i64 0, i64 0), i32 %20)
  br label %22

22:                                               ; preds = %18
  %23 = load i8, i8* %2, align 1
  %24 = sext i8 %23 to i32
  %25 = icmp eq i32 %24, 46
  br i1 %25, label %26, label %27

26:                                               ; preds = %22
  br label %31

27:                                               ; preds = %22
  br label %28

28:                                               ; preds = %27, %17
  %29 = load i32, i32* %3, align 4
  %30 = add nsw i32 %29, 1
  store i32 %30, i32* %3, align 4
  br label %4

31:                                               ; preds = %26, %4
  ret void
}

declare dso_local i32 @__isoc99_scanf(i8*, ...) #1

declare dso_local i32 @printf(i8*, ...) #1


!llvm.module.flags = !{!0}
!llvm.ident = !{!1}

!0 = !{i32 1, !"wchar_size", i32 4}
!1 = !{!"clang version 10.0.0-4ubuntu1 "}
